; Function Attrs: mustprogress uwtable
define void @_ZN5Ipopt14IndexSchurDataC2ESt6vectorIiSaIiEES3_(ptr noundef nonnull align 8 dereferenceable(72) initializes((0, 13), (16, 20), (24, 72)) %0, ptr noundef nonnull %1, ptr noundef %2) unnamed_addr #1 align 2 personality ptr @__gxx_personality_v0 {
  %4 = getelementptr inbounds nuw i8, ptr %0, i64 8
  store i32 0, ptr %4, align 8, !tbaa !3
  %5 = getelementptr inbounds nuw i8, ptr %0, i64 12
  store i8 0, ptr %5, align 4, !tbaa !8
  %6 = getelementptr inbounds nuw i8, ptr %0, i64 16
  store i32 0, ptr %6, align 8, !tbaa !11
  store ptr getelementptr inbounds nuw inrange(-16, 136) (i8, ptr @_ZTVN5Ipopt14IndexSchurDataE, i64 16), ptr %0, align 8, !tbaa !12
  %7 = getelementptr inbounds nuw i8, ptr %0, i64 24
  %8 = getelementptr inbounds nuw i8, ptr %0, i64 48
  tail call void @llvm.memset.p0.i64(ptr noundef nonnull align 8 dereferenceable(48) %7, i8 0, i64 48, i1 false)
  %9 = invoke noundef nonnull align 8 dereferenceable(24) ptr @_ZNSt6vectorIiSaIiEEaSERKS1_(ptr noundef nonnull align 8 dereferenceable(24) %7, ptr noundef nonnull align 8 dereferenceable(24) %1)
          to label %10 unwind label %29

10:                                               ; preds = %3
  %11 = invoke noundef nonnull align 8 dereferenceable(24) ptr @_ZNSt6vectorIiSaIiEEaSERKS1_(ptr noundef nonnull align 8 dereferenceable(24) %8, ptr noundef nonnull align 8 dereferenceable(24) %2)
          to label %12 unwind label %29

12:                                               ; preds = %10
  %13 = getelementptr inbounds nuw i8, ptr %0, i64 32
  %14 = load ptr, ptr %13, align 8, !tbaa !14
  %15 = load ptr, ptr %7, align 8, !tbaa !18
  %16 = ptrtoint ptr %14 to i64
  %17 = ptrtoint ptr %15 to i64
  %18 = sub i64 %16, %17
  %19 = lshr exact i64 %18, 2
  %20 = trunc i64 %19 to i32
  %21 = load ptr, ptr %0, align 8, !tbaa !12
  %22 = getelementptr inbounds nuw i8, ptr %21, i64 128
  %23 = load ptr, ptr %22, align 8
  invoke void %23(ptr noundef nonnull align 8 dereferenceable(20) %0, i32 noundef %20)
          to label %24 unwind label %29

24:                                               ; preds = %12
  %25 = load ptr, ptr %0, align 8, !tbaa !12
  %26 = getelementptr inbounds nuw i8, ptr %25, i64 120
  %27 = load ptr, ptr %26, align 8
  invoke void %27(ptr noundef nonnull align 8 dereferenceable(20) %0)
          to label %28 unwind label %29

28:                                               ; preds = %24
  ret void

29:                                               ; preds = %24, %12, %10, %3
  %30 = landingpad { ptr, i32 }
          cleanup
  %31 = load ptr, ptr %8, align 8, !tbaa !18
  %.not.i.i.i = icmp eq ptr %31, null
  br i1 %.not.i.i.i, label %_ZNSt6vectorIiSaIiEED2Ev.exit, label %32

32:                                               ; preds = %29
  %33 = getelementptr inbounds nuw i8, ptr %0, i64 64
  %34 = load ptr, ptr %33, align 8, !tbaa !19
  %35 = ptrtoint ptr %34 to i64
  %36 = ptrtoint ptr %31 to i64
  %37 = sub i64 %35, %36
  tail call void @_ZdlPvm(ptr noundef nonnull %31, i64 noundef %37) #17
  br label %_ZNSt6vectorIiSaIiEED2Ev.exit

_ZNSt6vectorIiSaIiEED2Ev.exit:                    ; preds = %29, %32
  %38 = load ptr, ptr %7, align 8, !tbaa !18
  %.not.i.i.i2 = icmp eq ptr %38, null
  br i1 %.not.i.i.i2, label %_ZNSt6vectorIiSaIiEED2Ev.exit3, label %39

39:                                               ; preds = %_ZNSt6vectorIiSaIiEED2Ev.exit
  %40 = getelementptr inbounds nuw i8, ptr %0, i64 40
  %41 = load ptr, ptr %40, align 8, !tbaa !19
  %42 = ptrtoint ptr %41 to i64
  %43 = ptrtoint ptr %38 to i64
  %44 = sub i64 %42, %43
  tail call void @_ZdlPvm(ptr noundef nonnull %38, i64 noundef %44) #17
  br label %_ZNSt6vectorIiSaIiEED2Ev.exit3

_ZNSt6vectorIiSaIiEED2Ev.exit3:                   ; preds = %_ZNSt6vectorIiSaIiEED2Ev.exit, %39
  store ptr getelementptr inbounds nuw inrange(-16, 16) (i8, ptr @_ZTVN5Ipopt16ReferencedObjectE, i64 16), ptr %0, align 8, !tbaa !12
  resume { ptr, i32 } %30
}